target datalayout = "e-m:e-p270:32:32-p271:32:32-p272:64:64-i64:64-i128:128-f80:128-n8:16:32:64-S128"
target triple = "x86_64-unknown-linux-gnu"

%"struct.icu_75::number::impl::MacroProps" = type { [4 x i8], %"class.icu_75::number::Notation", %"class.icu_75::MeasureUnit", %"class.icu_75::MeasureUnit", %"class.icu_75::number::Precision", i32, %"class.icu_75::number::impl::Grouper", %"class.icu_75::number::impl::Padder", %"class.icu_75::number::IntegerWidth", %"class.icu_75::number::impl::SymbolsWrapper", i32, i32, i8, i32, %"class.icu_75::number::Scale", %"class.icu_75::number::impl::StringProp", %"class.icu_75::number::impl::StringProp", ptr, ptr, i32, [4 x i8], %"class.icu_75::Locale" }
%"class.icu_75::number::Notation" = type { i32, %"union.icu_75::number::Notation::NotationUnion" }
%"union.icu_75::number::Notation::NotationUnion" = type { %"struct.icu_75::number::Notation::NotationUnion::ScientificSettings" }
%"struct.icu_75::number::Notation::NotationUnion::ScientificSettings" = type { i8, i8, i16, i32 }
%"class.icu_75::MeasureUnit" = type <{ %"class.icu_75::UObject", ptr, i16, i8, [5 x i8] }>
%"class.icu_75::UObject" = type { ptr }
%"class.icu_75::number::Precision" = type <{ i32, [4 x i8], %"union.icu_75::number::Precision::PrecisionUnion", i32, [4 x i8] }>
%"union.icu_75::number::Precision::PrecisionUnion" = type { %"struct.icu_75::number::Precision::PrecisionUnion::IncrementSettings" }
%"struct.icu_75::number::Precision::PrecisionUnion::IncrementSettings" = type { i64, i16, i16 }
%"class.icu_75::number::impl::Grouper" = type { i16, i16, i16, i32 }
%"class.icu_75::number::impl::Padder" = type { i32, %union.anon }
%union.anon = type { %struct.anon }
%struct.anon = type { i32, i32 }
%"class.icu_75::number::IntegerWidth" = type <{ %union.anon.0, i8, [3 x i8] }>
%union.anon.0 = type { i32, [4 x i8] }
%"class.icu_75::number::impl::SymbolsWrapper" = type { i32, %union.anon.2 }
%union.anon.2 = type { ptr }
%"class.icu_75::number::Scale" = type <{ i32, [4 x i8], ptr, i32, [4 x i8] }>
%"class.icu_75::number::impl::StringProp" = type { ptr, i16, i32 }
%"class.icu_75::Locale" = type <{ %"class.icu_75::UObject", [12 x i8], [6 x i8], [4 x i8], [2 x i8], i32, [4 x i8], ptr, [157 x i8], [3 x i8], ptr, i8, [7 x i8] }>
%"class.icu_75::number::LocalizedNumberFormatter" = type { %"class.icu_75::number::NumberFormatterSettings.5", ptr, [8 x i8], ptr }
%"class.icu_75::number::NumberFormatterSettings.5" = type { %"struct.icu_75::number::impl::MacroProps" }
%"struct.icu_75::number::impl::DecimalFormatWarehouse" = type { [8 x i8], %"class.icu_75::number::impl::AutoAffixPatternProvider", %"class.icu_75::LocalPointer.34" }
%"class.icu_75::number::impl::AutoAffixPatternProvider" = type { %"class.icu_75::number::impl::PropertiesAffixPatternProvider", %"class.icu_75::number::impl::CurrencyPluralInfoAffixProvider" }
%"class.icu_75::number::impl::PropertiesAffixPatternProvider" = type <{ %"class.icu_75::number::impl::AffixPatternProvider", %"class.icu_75::UnicodeString", %"class.icu_75::UnicodeString", %"class.icu_75::UnicodeString", %"class.icu_75::UnicodeString", i8, i8, i8, [5 x i8] }>
%"class.icu_75::number::impl::AffixPatternProvider" = type { ptr }
%"class.icu_75::UnicodeString" = type { %"class.icu_75::Replaceable", %"union.icu_75::UnicodeString::StackBufferOrFields" }
%"class.icu_75::Replaceable" = type { %"class.icu_75::UObject" }
%"union.icu_75::UnicodeString::StackBufferOrFields" = type { %struct.anon.4, [32 x i8] }
%struct.anon.4 = type { i16, i32, i32, ptr }
%"class.icu_75::number::impl::CurrencyPluralInfoAffixProvider" = type <{ %"class.icu_75::number::impl::AffixPatternProvider", [8 x %"class.icu_75::number::impl::PropertiesAffixPatternProvider"], i8, [7 x i8] }>
%"class.icu_75::LocalPointer.34" = type { %"class.icu_75::LocalPointerBase.35" }
%"class.icu_75::LocalPointerBase.35" = type { ptr }

; Function Attrs: mustprogress nounwind uwtable
define linkonce_odr void @_ZN6icu_7516LocalPointerBaseINS_11PluralRulesEED2Ev(ptr noundef nonnull align 8 dereferenceable(8) %this) unnamed_addr #0 comdat align 2 {
entry:
  %this.addr = alloca ptr, align 8
  store ptr %this, ptr %this.addr, align 8
  ret void
}

; Function Attrs: mustprogress nounwind uwtable
define linkonce_odr void @_ZN6icu_7512LocalPointerINS_11PluralRulesEED2Ev(ptr noundef nonnull align 8 dereferenceable(8) %this) unnamed_addr #0 comdat align 2 {
entry:
  %this.addr = alloca ptr, align 8
  store ptr %this, ptr %this.addr, align 8
  %this1 = load ptr, ptr %this.addr, align 8
  %ptr = getelementptr inbounds %"class.icu_75::LocalPointerBase.35", ptr %this1, i32 0, i32 0
  %0 = load ptr, ptr %ptr, align 8
  %isnull = icmp eq ptr %0, null
  br i1 %isnull, label %delete.end, label %delete.notnull

delete.notnull:                                   ; preds = %entry
  %vtable = load ptr, ptr %0, align 8
  %vfn = getelementptr inbounds ptr, ptr %vtable, i64 1
  %1 = load ptr, ptr %vfn, align 8
  call void %1(ptr noundef nonnull align 8 dereferenceable(28) %0) #10
  br label %delete.end

delete.end:                                       ; preds = %delete.notnull, %entry
  call void @_ZN6icu_7516LocalPointerBaseINS_11PluralRulesEED2Ev(ptr noundef nonnull align 8 dereferenceable(8) %this1) #10
  ret void
}

; Function Attrs: noreturn nounwind uwtable
define linkonce_odr hidden void @__clang_call_terminate(ptr noundef %0) #2 comdat {
  %2 = call ptr @__cxa_begin_catch(ptr %0) #10
  call void @_ZSt9terminatev() #12
  unreachable
}

; Function Attrs: mustprogress nounwind uwtable
define linkonce_odr noundef i32 @_ZStanSt12memory_orderSt23__memory_order_modifier(i32 noundef %__m, i32 noundef %__mod) #0 comdat {
entry:
  %__m.addr = alloca i32, align 4
  %__mod.addr = alloca i32, align 4
  store i32 %__m, ptr %__m.addr, align 4
  store i32 %__mod, ptr %__mod.addr, align 4
  %0 = load i32, ptr %__m.addr, align 4
  %1 = load i32, ptr %__mod.addr, align 4
  %and = and i32 %0, %1
  ret i32 %and
}

; Function Attrs: mustprogress nounwind uwtable
define linkonce_odr void @_ZN6icu_756number4impl22DecimalFormatWarehouseD2Ev(ptr noundef nonnull align 8 dereferenceable(2480) %this) unnamed_addr #0 comdat align 2 {
entry:
  %this.addr = alloca ptr, align 8
  store ptr %this, ptr %this.addr, align 8
  %this1 = load ptr, ptr %this.addr, align 8
  %rules = getelementptr inbounds %"struct.icu_75::number::impl::DecimalFormatWarehouse", ptr %this1, i32 0, i32 2
  call void @_ZN6icu_7512LocalPointerINS_11PluralRulesEED2Ev(ptr noundef nonnull align 8 dereferenceable(8) %rules) #10
  %affixProvider = getelementptr inbounds %"struct.icu_75::number::impl::DecimalFormatWarehouse", ptr %this1, i32 0, i32 1
  call void @_ZN6icu_756number4impl24AutoAffixPatternProviderD2Ev(ptr noundef nonnull align 8 dereferenceable(2464) %affixProvider) #10
  ret void
}

; Function Attrs: mustprogress uwtable
define void @_ZN6icu_756number24LocalizedNumberFormatter13resetCompiledEv(ptr noundef nonnull align 8 dereferenceable(496) %this) #1 align 2 {
entry:
  %this.addr = alloca ptr, align 8
  %callCount = alloca ptr, align 8
  store ptr %this, ptr %this.addr, align 8
  %this1 = load ptr, ptr %this.addr, align 8
  %fUnsafeCallCount = getelementptr inbounds %"class.icu_75::number::LocalizedNumberFormatter", ptr %this1, i32 0, i32 2
  %arraydecay = getelementptr inbounds [8 x i8], ptr %fUnsafeCallCount, i64 0, i64 0
  store ptr %arraydecay, ptr %callCount, align 8
  %0 = load ptr, ptr %callCount, align 8
  call void @_ZN6icu_7517umtx_storeReleaseERSt6atomicIiEi(ptr noundef nonnull align 4 dereferenceable(4) %0, i32 noundef 0)
  %fCompiled = getelementptr inbounds %"class.icu_75::number::LocalizedNumberFormatter", ptr %this1, i32 0, i32 1
  store ptr null, ptr %fCompiled, align 8
  ret void
}

; Function Attrs: mustprogress nounwind uwtable
define linkonce_odr void @_ZN6icu_7517umtx_storeReleaseERSt6atomicIiEi(ptr noundef nonnull align 4 dereferenceable(4) %var, i32 noundef %val) #0 comdat personality ptr @__gxx_personality_v0 {
entry:
  %this.addr.i = alloca ptr, align 8
  %__i.addr.i = alloca i32, align 4
  %__m.addr.i = alloca i32, align 4
  %__b.i = alloca i32, align 4
  %.atomictmp.i = alloca i32, align 4
  %var.addr = alloca ptr, align 8
  %val.addr = alloca i32, align 4
  store ptr %var, ptr %var.addr, align 8
  store i32 %val, ptr %val.addr, align 4
  %0 = load ptr, ptr %var.addr, align 8
  %1 = load i32, ptr %val.addr, align 4
  store ptr %0, ptr %this.addr.i, align 8
  store i32 %1, ptr %__i.addr.i, align 4
  store i32 3, ptr %__m.addr.i, align 4
  %this1.i = load ptr, ptr %this.addr.i, align 8
  %2 = load i32, ptr %__m.addr.i, align 4
  %call.i = invoke noundef i32 @_ZStanSt12memory_orderSt23__memory_order_modifier(i32 noundef %2, i32 noundef 65535)
          to label %invoke.cont.i unwind label %terminate.lpad.i

invoke.cont.i:                                    ; preds = %entry
  store i32 %call.i, ptr %__b.i, align 4
  %3 = load i32, ptr %__m.addr.i, align 4
  %4 = load i32, ptr %__i.addr.i, align 4
  store i32 %4, ptr %.atomictmp.i, align 4
  switch i32 %3, label %monotonic.i [
    i32 3, label %release.i
    i32 5, label %seqcst.i
  ]

monotonic.i:                                      ; preds = %invoke.cont.i
  %5 = load i32, ptr %.atomictmp.i, align 4
  store atomic i32 %5, ptr %this1.i monotonic, align 4
  br label %_ZNSt13__atomic_baseIiE5storeEiSt12memory_order.exit

release.i:                                        ; preds = %invoke.cont.i
  %6 = load i32, ptr %.atomictmp.i, align 4
  store atomic i32 %6, ptr %this1.i release, align 4
  br label %_ZNSt13__atomic_baseIiE5storeEiSt12memory_order.exit

seqcst.i:                                         ; preds = %invoke.cont.i
  %7 = load i32, ptr %.atomictmp.i, align 4
  store atomic i32 %7, ptr %this1.i seq_cst, align 4
  br label %_ZNSt13__atomic_baseIiE5storeEiSt12memory_order.exit

terminate.lpad.i:                                 ; preds = %entry
  %8 = landingpad { ptr, i32 }
          catch ptr null
  %9 = extractvalue { ptr, i32 } %8, 0
  call void @__clang_call_terminate(ptr %9) #12
  unreachable

_ZNSt13__atomic_baseIiE5storeEiSt12memory_order.exit: ; preds = %seqcst.i, %release.i, %monotonic.i
  ret void
}

; Function Attrs: mustprogress uwtable
define void @_ZN6icu_756number24LocalizedNumberFormatter13lnfMoveHelperEOS1_(ptr noundef nonnull align 8 dereferenceable(496) %this, ptr noundef nonnull align 8 dereferenceable(496) %src) #1 align 2 {
entry:
  %this.addr = alloca ptr, align 8
  %src.addr = alloca ptr, align 8
  %callCount = alloca ptr, align 8
  store ptr %this, ptr %this.addr, align 8
  store ptr %src, ptr %src.addr, align 8
  %this1 = load ptr, ptr %this.addr, align 8
  %fCompiled = getelementptr inbounds %"class.icu_75::number::LocalizedNumberFormatter", ptr %this1, i32 0, i32 1
  %0 = load ptr, ptr %fCompiled, align 8
  %isnull = icmp eq ptr %0, null
  br i1 %isnull, label %delete.end, label %delete.notnull

delete.notnull:                                   ; preds = %entry
  call void @_ZN6icu_756number4impl19NumberFormatterImplD2Ev(ptr noundef nonnull align 8 dereferenceable(600) %0) #10
  call void @_ZN6icu_757UMemorydlEPv(ptr noundef %0) #10
  br label %delete.end

delete.end:                                       ; preds = %delete.notnull, %entry
  %1 = load ptr, ptr %src.addr, align 8
  %fCompiled2 = getelementptr inbounds %"class.icu_75::number::LocalizedNumberFormatter", ptr %1, i32 0, i32 1
  %2 = load ptr, ptr %fCompiled2, align 8
  %cmp = icmp ne ptr %2, null
  br i1 %cmp, label %if.then, label %if.else

if.then:                                          ; preds = %delete.end
  %fUnsafeCallCount = getelementptr inbounds %"class.icu_75::number::LocalizedNumberFormatter", ptr %this1, i32 0, i32 2
  %arraydecay = getelementptr inbounds [8 x i8], ptr %fUnsafeCallCount, i64 0, i64 0
  store ptr %arraydecay, ptr %callCount, align 8
  %3 = load ptr, ptr %callCount, align 8
  call void @_ZN6icu_7517umtx_storeReleaseERSt6atomicIiEi(ptr noundef nonnull align 4 dereferenceable(4) %3, i32 noundef -2147483648)
  %4 = load ptr, ptr %src.addr, align 8
  %fCompiled3 = getelementptr inbounds %"class.icu_75::number::LocalizedNumberFormatter", ptr %4, i32 0, i32 1
  %5 = load ptr, ptr %fCompiled3, align 8
  %fCompiled4 = getelementptr inbounds %"class.icu_75::number::LocalizedNumberFormatter", ptr %this1, i32 0, i32 1
  store ptr %5, ptr %fCompiled4, align 8
  %6 = load ptr, ptr %src.addr, align 8
  call void @_ZN6icu_756number24LocalizedNumberFormatter13resetCompiledEv(ptr noundef nonnull align 8 dereferenceable(496) %6)
  br label %if.end

if.else:                                          ; preds = %delete.end
  call void @_ZN6icu_756number24LocalizedNumberFormatter13resetCompiledEv(ptr noundef nonnull align 8 dereferenceable(496) %this1)
  br label %if.end

if.end:                                           ; preds = %if.else, %if.then
  %fWarehouse = getelementptr inbounds %"class.icu_75::number::LocalizedNumberFormatter", ptr %this1, i32 0, i32 3
  %7 = load ptr, ptr %fWarehouse, align 8
  %isnull5 = icmp eq ptr %7, null
  br i1 %isnull5, label %delete.end7, label %delete.notnull6

delete.notnull6:                                  ; preds = %if.end
  call void @_ZN6icu_756number4impl22DecimalFormatWarehouseD2Ev(ptr noundef nonnull align 8 dereferenceable(2480) %7) #10
  call void @_ZN6icu_757UMemorydlEPv(ptr noundef %7) #10
  br label %delete.end7

delete.end7:                                      ; preds = %delete.notnull6, %if.end
  %8 = load ptr, ptr %src.addr, align 8
  %fWarehouse8 = getelementptr inbounds %"class.icu_75::number::LocalizedNumberFormatter", ptr %8, i32 0, i32 3
  %9 = load ptr, ptr %fWarehouse8, align 8
  %fWarehouse9 = getelementptr inbounds %"class.icu_75::number::LocalizedNumberFormatter", ptr %this1, i32 0, i32 3
  store ptr %9, ptr %fWarehouse9, align 8
  %10 = load ptr, ptr %src.addr, align 8
  %fWarehouse10 = getelementptr inbounds %"class.icu_75::number::LocalizedNumberFormatter", ptr %10, i32 0, i32 3
  store ptr null, ptr %fWarehouse10, align 8
  ret void
}