; Function Attrs: mustprogress uwtable
define void @_ZN6icu_756number24LocalizedNumberFormatter13lnfMoveHelperEOS1_(ptr nocapture noundef nonnull align 8 dereferenceable(496) %this, ptr nocapture noundef nonnull align 8 dereferenceable(496) %src) local_unnamed_addr #1 align 2 personality ptr @__gxx_personality_v0 {
entry:
  %fCompiled = getelementptr inbounds i8, ptr %this, i64 472
  %0 = load ptr, ptr %fCompiled, align 8
  %isnull = icmp eq ptr %0, null
  br i1 %isnull, label %delete.end, label %delete.notnull

delete.notnull:                                   ; preds = %entry
  tail call void @_ZN6icu_756number4impl19NumberFormatterImplD2Ev(ptr noundef nonnull align 8 dereferenceable(600) %0) #14
  tail call void @_ZN6icu_757UMemorydlEPv(ptr noundef nonnull %0) #14
  br label %delete.end

delete.end:                                       ; preds = %delete.notnull, %entry
  %fCompiled2 = getelementptr inbounds i8, ptr %src, i64 472
  %1 = load ptr, ptr %fCompiled2, align 8
  %cmp.not = icmp eq ptr %1, null
  %fUnsafeCallCount.i6 = getelementptr inbounds i8, ptr %this, i64 480
  br i1 %cmp.not, label %if.end, label %if.then

if.then:                                          ; preds = %delete.end
  store atomic i32 -2147483648, ptr %fUnsafeCallCount.i6 release, align 8
  %2 = load ptr, ptr %fCompiled2, align 8
  store ptr %2, ptr %fCompiled, align 8
  %fUnsafeCallCount.i = getelementptr inbounds i8, ptr %src, i64 480
  br label %if.end

if.end:                                           ; preds = %delete.end, %if.then
  %fUnsafeCallCount.i6.sink = phi ptr [ %fUnsafeCallCount.i, %if.then ], [ %fUnsafeCallCount.i6, %delete.end ]
  %fCompiled.sink = phi ptr [ %fCompiled2, %if.then ], [ %fCompiled, %delete.end ]
  store atomic i32 0, ptr %fUnsafeCallCount.i6.sink release, align 4
  store ptr null, ptr %fCompiled.sink, align 8
  %fWarehouse = getelementptr inbounds i8, ptr %this, i64 488
  %3 = load ptr, ptr %fWarehouse, align 8
  %isnull5 = icmp eq ptr %3, null
  br i1 %isnull5, label %delete.end7, label %delete.notnull6

delete.notnull6:                                  ; preds = %if.end
  %rules.i = getelementptr inbounds i8, ptr %3, i64 2472
  %4 = load ptr, ptr %rules.i, align 8
  %isnull.i.i = icmp eq ptr %4, null
  br i1 %isnull.i.i, label %_ZN6icu_756number4impl22DecimalFormatWarehouseD2Ev.exit, label %delete.notnull.i.i

delete.notnull.i.i:                               ; preds = %delete.notnull6
  %vtable.i.i = load ptr, ptr %4, align 8
  %vfn.i.i = getelementptr inbounds i8, ptr %vtable.i.i, i64 8
  %5 = load ptr, ptr %vfn.i.i, align 8
  tail call void %5(ptr noundef nonnull align 8 dereferenceable(28) %4) #14
  br label %_ZN6icu_756number4impl22DecimalFormatWarehouseD2Ev.exit

_ZN6icu_756number4impl22DecimalFormatWarehouseD2Ev.exit: ; preds = %delete.notnull6, %delete.notnull.i.i
  %affixProvider.i = getelementptr inbounds i8, ptr %3, i64 8
  tail call void @_ZN6icu_756number4impl24AutoAffixPatternProviderD2Ev(ptr noundef nonnull align 8 dereferenceable(2464) %affixProvider.i) #14
  tail call void @_ZN6icu_757UMemorydlEPv(ptr noundef nonnull %3) #14
  br label %delete.end7

delete.end7:                                      ; preds = %_ZN6icu_756number4impl22DecimalFormatWarehouseD2Ev.exit, %if.end
  %fWarehouse8 = getelementptr inbounds i8, ptr %src, i64 488
  %6 = load ptr, ptr %fWarehouse8, align 8
  store ptr %6, ptr %fWarehouse, align 8
  store ptr null, ptr %fWarehouse8, align 8
  ret void
}